target datalayout = "e-m:e-p270:32:32-p271:32:32-p272:64:64-i64:64-i128:128-f80:128-n8:16:32:64-S128"
target triple = "x86_64-pc-linux-gnu"

%struct.EncodeContextMapArena = type { [272 x i32], [272 x i8], [272 x i16] }

; Function Attrs: alwaysinline mustprogress nounwind uwtable
define internal void @_ZL22BrotliUnalignedWrite64Pvm(ptr noundef %0, i64 noundef %1) #6 {
  %3 = alloca ptr, align 8
  %4 = alloca i64, align 8
  store ptr %0, ptr %3, align 8, !tbaa !43
  store i64 %1, ptr %4, align 8, !tbaa !8
  %5 = load ptr, ptr %3, align 8, !tbaa !43
  call void @llvm.memcpy.p0.p0.i64(ptr align 1 %5, ptr align 8 %4, i64 8, i1 false)
  ret void
}

; Function Attrs: alwaysinline mustprogress nounwind uwtable
define internal noundef i32 @_ZN13duckdb_brotliL16Log2FloorNonZeroEm(i64 noundef %0) #6 {
  %2 = alloca i64, align 8
  store i64 %0, ptr %2, align 8, !tbaa !8
  %3 = load i64, ptr %2, align 8, !tbaa !8
  %4 = trunc i64 %3 to i32
  %5 = call i32 @llvm.ctlz.i32(i32 %4, i1 true)
  %6 = xor i32 31, %5
  ret i32 %6
}

; Function Attrs: alwaysinline mustprogress uwtable
define internal void @_ZN13duckdb_brotliL15BrotliWriteBitsEmmPmPh(i64 noundef %0, i64 noundef %1, ptr noalias noundef %2, ptr noalias noundef %3) #4 {
  %5 = alloca i64, align 8
  %6 = alloca i64, align 8
  %7 = alloca ptr, align 8
  %8 = alloca ptr, align 8
  %9 = alloca ptr, align 8
  %10 = alloca i64, align 8
  store i64 %0, ptr %5, align 8, !tbaa !8
  store i64 %1, ptr %6, align 8, !tbaa !8
  store ptr %2, ptr %7, align 8, !tbaa !12
  store ptr %3, ptr %8, align 8, !tbaa !3
  call void @llvm.lifetime.start.p0(i64 8, ptr %9) #10
  %11 = load ptr, ptr %8, align 8, !tbaa !3
  %12 = load ptr, ptr %7, align 8, !tbaa !12
  %13 = load i64, ptr %12, align 8, !tbaa !8
  %14 = lshr i64 %13, 3
  %15 = getelementptr inbounds nuw i8, ptr %11, i64 %14
  store ptr %15, ptr %9, align 8, !tbaa !3
  call void @llvm.lifetime.start.p0(i64 8, ptr %10) #10
  %16 = load ptr, ptr %9, align 8, !tbaa !3
  %17 = load i8, ptr %16, align 1, !tbaa !16
  %18 = zext i8 %17 to i64
  store i64 %18, ptr %10, align 8, !tbaa !8
  %19 = load i64, ptr %6, align 8, !tbaa !8
  %20 = load ptr, ptr %7, align 8, !tbaa !12
  %21 = load i64, ptr %20, align 8, !tbaa !8
  %22 = and i64 %21, 7
  %23 = shl i64 %19, %22
  %24 = load i64, ptr %10, align 8, !tbaa !8
  %25 = or i64 %24, %23
  store i64 %25, ptr %10, align 8, !tbaa !8
  %26 = load ptr, ptr %9, align 8, !tbaa !3
  %27 = load i64, ptr %10, align 8, !tbaa !8
  call void @_ZL22BrotliUnalignedWrite64Pvm(ptr noundef %26, i64 noundef %27)
  %28 = load i64, ptr %5, align 8, !tbaa !8
  %29 = load ptr, ptr %7, align 8, !tbaa !12
  %30 = load i64, ptr %29, align 8, !tbaa !8
  %31 = add i64 %30, %28
  store i64 %31, ptr %29, align 8, !tbaa !8
  call void @llvm.lifetime.end.p0(i64 8, ptr %10) #10
  call void @llvm.lifetime.end.p0(i64 8, ptr %9) #10
  ret void
}

; Function Attrs: mustprogress uwtable
define internal void @_ZL16StoreVarLenUint8mPmPh(i64 noundef %0, ptr noundef %1, ptr noundef %2) #0 {
  %4 = alloca i64, align 8
  %5 = alloca ptr, align 8
  %6 = alloca ptr, align 8
  %7 = alloca i64, align 8
  store i64 %0, ptr %4, align 8, !tbaa !8
  store ptr %1, ptr %5, align 8, !tbaa !12
  store ptr %2, ptr %6, align 8, !tbaa !3
  %8 = load i64, ptr %4, align 8, !tbaa !8
  %9 = icmp eq i64 %8, 0
  br i1 %9, label %10, label %13

10:                                               ; preds = %3
  %11 = load ptr, ptr %5, align 8, !tbaa !12
  %12 = load ptr, ptr %6, align 8, !tbaa !3
  call void @_ZN13duckdb_brotliL15BrotliWriteBitsEmmPmPh(i64 noundef 1, i64 noundef 0, ptr noundef %11, ptr noundef %12)
  br label %29

13:                                               ; preds = %3
  call void @llvm.lifetime.start.p0(i64 8, ptr %7) #10
  %14 = load i64, ptr %4, align 8, !tbaa !8
  %15 = call noundef i32 @_ZN13duckdb_brotliL16Log2FloorNonZeroEm(i64 noundef %14)
  %16 = zext i32 %15 to i64
  store i64 %16, ptr %7, align 8, !tbaa !8
  %17 = load ptr, ptr %5, align 8, !tbaa !12
  %18 = load ptr, ptr %6, align 8, !tbaa !3
  call void @_ZN13duckdb_brotliL15BrotliWriteBitsEmmPmPh(i64 noundef 1, i64 noundef 1, ptr noundef %17, ptr noundef %18)
  %19 = load i64, ptr %7, align 8, !tbaa !8
  %20 = load ptr, ptr %5, align 8, !tbaa !12
  %21 = load ptr, ptr %6, align 8, !tbaa !3
  call void @_ZN13duckdb_brotliL15BrotliWriteBitsEmmPmPh(i64 noundef 3, i64 noundef %19, ptr noundef %20, ptr noundef %21)
  %22 = load i64, ptr %7, align 8, !tbaa !8
  %23 = load i64, ptr %4, align 8, !tbaa !8
  %24 = load i64, ptr %7, align 8, !tbaa !8
  %25 = shl i64 1, %24
  %26 = sub i64 %23, %25
  %27 = load ptr, ptr %5, align 8, !tbaa !12
  %28 = load ptr, ptr %6, align 8, !tbaa !3
  call void @_ZN13duckdb_brotliL15BrotliWriteBitsEmmPmPh(i64 noundef %22, i64 noundef %26, ptr noundef %27, ptr noundef %28)
  call void @llvm.lifetime.end.p0(i64 8, ptr %7) #10
  br label %29

29:                                               ; preds = %13, %10
  ret void
}

; Function Attrs: mustprogress uwtable
define internal void @_ZL22StoreTrivialContextMapP21EncodeContextMapArenammPN13duckdb_brotli11HuffmanTreeEPmPh(ptr noundef %0, i64 noundef %1, i64 noundef %2, ptr noundef %3, ptr noundef %4, ptr noundef %5) #0 {
  %7 = alloca ptr, align 8
  %8 = alloca i64, align 8
  %9 = alloca i64, align 8
  %10 = alloca ptr, align 8
  %11 = alloca ptr, align 8
  %12 = alloca ptr, align 8
  %13 = alloca i64, align 8
  %14 = alloca i64, align 8
  %15 = alloca i64, align 8
  %16 = alloca ptr, align 8
  %17 = alloca ptr, align 8
  %18 = alloca ptr, align 8
  %19 = alloca i64, align 8
  %20 = alloca i64, align 8
  store ptr %0, ptr %7, align 8, !tbaa !134
  store i64 %1, ptr %8, align 8, !tbaa !8
  store i64 %2, ptr %9, align 8, !tbaa !8
  store ptr %3, ptr %10, align 8, !tbaa !10
  store ptr %4, ptr %11, align 8, !tbaa !12
  store ptr %5, ptr %12, align 8, !tbaa !3
  %21 = load i64, ptr %8, align 8, !tbaa !8
  %22 = sub i64 %21, 1
  %23 = load ptr, ptr %11, align 8, !tbaa !12
  %24 = load ptr, ptr %12, align 8, !tbaa !3
  call void @_ZL16StoreVarLenUint8mPmPh(i64 noundef %22, ptr noundef %23, ptr noundef %24)
  %25 = load i64, ptr %8, align 8, !tbaa !8
  %26 = icmp ugt i64 %25, 1
  br i1 %26, label %27, label %133

27:                                               ; preds = %6
  call void @llvm.lifetime.start.p0(i64 8, ptr %13) #10
  %28 = load i64, ptr %9, align 8, !tbaa !8
  %29 = sub i64 %28, 1
  store i64 %29, ptr %13, align 8, !tbaa !8
  call void @llvm.lifetime.start.p0(i64 8, ptr %14) #10
  %30 = load i64, ptr %13, align 8, !tbaa !8
  %31 = trunc i64 %30 to i32
  %32 = shl i32 1, %31
  %33 = sub i32 %32, 1
  %34 = zext i32 %33 to i64
  store i64 %34, ptr %14, align 8, !tbaa !8
  call void @llvm.lifetime.start.p0(i64 8, ptr %15) #10
  %35 = load i64, ptr %8, align 8, !tbaa !8
  %36 = load i64, ptr %13, align 8, !tbaa !8
  %37 = add i64 %35, %36
  store i64 %37, ptr %15, align 8, !tbaa !8
  call void @llvm.lifetime.start.p0(i64 8, ptr %16) #10
  %38 = load ptr, ptr %7, align 8, !tbaa !134
  %39 = getelementptr inbounds nuw %struct.EncodeContextMapArena, ptr %38, i32 0, i32 0
  %40 = getelementptr inbounds [272 x i32], ptr %39, i64 0, i64 0
  store ptr %40, ptr %16, align 8, !tbaa !27
  call void @llvm.lifetime.start.p0(i64 8, ptr %17) #10
  %41 = load ptr, ptr %7, align 8, !tbaa !134
  %42 = getelementptr inbounds nuw %struct.EncodeContextMapArena, ptr %41, i32 0, i32 1
  %43 = getelementptr inbounds [272 x i8], ptr %42, i64 0, i64 0
  store ptr %43, ptr %17, align 8, !tbaa !3
  call void @llvm.lifetime.start.p0(i64 8, ptr %18) #10
  %44 = load ptr, ptr %7, align 8, !tbaa !134
  %45 = getelementptr inbounds nuw %struct.EncodeContextMapArena, ptr %44, i32 0, i32 2
  %46 = getelementptr inbounds [272 x i16], ptr %45, i64 0, i64 0
  store ptr %46, ptr %18, align 8, !tbaa !22
  call void @llvm.lifetime.start.p0(i64 8, ptr %19) #10
  %47 = load ptr, ptr %16, align 8, !tbaa !27
  %48 = load i64, ptr %15, align 8, !tbaa !8
  %49 = mul i64 %48, 4
  call void @llvm.memset.p0.i64(ptr align 4 %47, i8 0, i64 %49, i1 false)
  %50 = load ptr, ptr %11, align 8, !tbaa !12
  %51 = load ptr, ptr %12, align 8, !tbaa !3
  call void @_ZN13duckdb_brotliL15BrotliWriteBitsEmmPmPh(i64 noundef 1, i64 noundef 1, ptr noundef %50, ptr noundef %51)
  %52 = load i64, ptr %13, align 8, !tbaa !8
  %53 = sub i64 %52, 1
  %54 = load ptr, ptr %11, align 8, !tbaa !12
  %55 = load ptr, ptr %12, align 8, !tbaa !3
  call void @_ZN13duckdb_brotliL15BrotliWriteBitsEmmPmPh(i64 noundef 4, i64 noundef %53, ptr noundef %54, ptr noundef %55)
  %56 = load i64, ptr %8, align 8, !tbaa !8
  %57 = trunc i64 %56 to i32
  %58 = load ptr, ptr %16, align 8, !tbaa !27
  %59 = load i64, ptr %13, align 8, !tbaa !8
  %60 = getelementptr inbounds nuw i32, ptr %58, i64 %59
  store i32 %57, ptr %60, align 4, !tbaa !14
  %61 = load ptr, ptr %16, align 8, !tbaa !27
  %62 = getelementptr inbounds i32, ptr %61, i64 0
  store i32 1, ptr %62, align 4, !tbaa !14
  %63 = load i64, ptr %9, align 8, !tbaa !8
  store i64 %63, ptr %19, align 8, !tbaa !8
  br label %64

64:                                               ; preds = %72, %27
  %65 = load i64, ptr %19, align 8, !tbaa !8
  %66 = load i64, ptr %15, align 8, !tbaa !8
  %67 = icmp ult i64 %65, %66
  br i1 %67, label %68, label %75

68:                                               ; preds = %64
  %69 = load ptr, ptr %16, align 8, !tbaa !27
  %70 = load i64, ptr %19, align 8, !tbaa !8
  %71 = getelementptr inbounds nuw i32, ptr %69, i64 %70
  store i32 1, ptr %71, align 4, !tbaa !14
  br label %72

72:                                               ; preds = %68
  %73 = load i64, ptr %19, align 8, !tbaa !8
  %74 = add i64 %73, 1
  store i64 %74, ptr %19, align 8, !tbaa !8
  br label %64, !llvm.loop !136

75:                                               ; preds = %64
  %76 = load ptr, ptr %16, align 8, !tbaa !27
  %77 = load i64, ptr %15, align 8, !tbaa !8
  %78 = load i64, ptr %15, align 8, !tbaa !8
  %79 = load ptr, ptr %10, align 8, !tbaa !10
  %80 = load ptr, ptr %17, align 8, !tbaa !3
  %81 = load ptr, ptr %18, align 8, !tbaa !22
  %82 = load ptr, ptr %11, align 8, !tbaa !12
  %83 = load ptr, ptr %12, align 8, !tbaa !3
  call void @_ZL24BuildAndStoreHuffmanTreePKjmmPN13duckdb_brotli11HuffmanTreeEPhPtPmS4_(ptr noundef %76, i64 noundef %77, i64 noundef %78, ptr noundef %79, ptr noundef %80, ptr noundef %81, ptr noundef %82, ptr noundef %83)
  store i64 0, ptr %19, align 8, !tbaa !8
  br label %84

84:                                               ; preds = %127, %75
  %85 = load i64, ptr %19, align 8, !tbaa !8
  %86 = load i64, ptr %8, align 8, !tbaa !8
  %87 = icmp ult i64 %85, %86
  br i1 %87, label %88, label %130

88:                                               ; preds = %84
  call void @llvm.lifetime.start.p0(i64 8, ptr %20) #10
  %89 = load i64, ptr %19, align 8, !tbaa !8
  %90 = icmp eq i64 %89, 0
  br i1 %90, label %91, label %92

91:                                               ; preds = %88
  br label %97

92:                                               ; preds = %88
  %93 = load i64, ptr %19, align 8, !tbaa !8
  %94 = load i64, ptr %9, align 8, !tbaa !8
  %95 = add i64 %93, %94
  %96 = sub i64 %95, 1
  br label %97

97:                                               ; preds = %92, %91
  %98 = phi i64 [ 0, %91 ], [ %96, %92 ]
  store i64 %98, ptr %20, align 8, !tbaa !8
  %99 = load ptr, ptr %17, align 8, !tbaa !3
  %100 = load i64, ptr %20, align 8, !tbaa !8
  %101 = getelementptr inbounds nuw i8, ptr %99, i64 %100
  %102 = load i8, ptr %101, align 1, !tbaa !16
  %103 = zext i8 %102 to i64
  %104 = load ptr, ptr %18, align 8, !tbaa !22
  %105 = load i64, ptr %20, align 8, !tbaa !8
  %106 = getelementptr inbounds nuw i16, ptr %104, i64 %105
  %107 = load i16, ptr %106, align 2, !tbaa !24
  %108 = zext i16 %107 to i64
  %109 = load ptr, ptr %11, align 8, !tbaa !12
  %110 = load ptr, ptr %12, align 8, !tbaa !3
  call void @_ZN13duckdb_brotliL15BrotliWriteBitsEmmPmPh(i64 noundef %103, i64 noundef %108, ptr noundef %109, ptr noundef %110)
  %111 = load ptr, ptr %17, align 8, !tbaa !3
  %112 = load i64, ptr %13, align 8, !tbaa !8
  %113 = getelementptr inbounds nuw i8, ptr %111, i64 %112
  %114 = load i8, ptr %113, align 1, !tbaa !16
  %115 = zext i8 %114 to i64
  %116 = load ptr, ptr %18, align 8, !tbaa !22
  %117 = load i64, ptr %13, align 8, !tbaa !8
  %118 = getelementptr inbounds nuw i16, ptr %116, i64 %117
  %119 = load i16, ptr %118, align 2, !tbaa !24
  %120 = zext i16 %119 to i64
  %121 = load ptr, ptr %11, align 8, !tbaa !12
  %122 = load ptr, ptr %12, align 8, !tbaa !3
  call void @_ZN13duckdb_brotliL15BrotliWriteBitsEmmPmPh(i64 noundef %115, i64 noundef %120, ptr noundef %121, ptr noundef %122)
  %123 = load i64, ptr %13, align 8, !tbaa !8
  %124 = load i64, ptr %14, align 8, !tbaa !8
  %125 = load ptr, ptr %11, align 8, !tbaa !12
  %126 = load ptr, ptr %12, align 8, !tbaa !3
  call void @_ZN13duckdb_brotliL15BrotliWriteBitsEmmPmPh(i64 noundef %123, i64 noundef %124, ptr noundef %125, ptr noundef %126)
  call void @llvm.lifetime.end.p0(i64 8, ptr %20) #10
  br label %127

127:                                              ; preds = %97
  %128 = load i64, ptr %19, align 8, !tbaa !8
  %129 = add i64 %128, 1
  store i64 %129, ptr %19, align 8, !tbaa !8
  br label %84, !llvm.loop !137

130:                                              ; preds = %84
  %131 = load ptr, ptr %11, align 8, !tbaa !12
  %132 = load ptr, ptr %12, align 8, !tbaa !3
  call void @_ZN13duckdb_brotliL15BrotliWriteBitsEmmPmPh(i64 noundef 1, i64 noundef 1, ptr noundef %131, ptr noundef %132)
  call void @llvm.lifetime.end.p0(i64 8, ptr %19) #10
  call void @llvm.lifetime.end.p0(i64 8, ptr %18) #10
  call void @llvm.lifetime.end.p0(i64 8, ptr %17) #10
  call void @llvm.lifetime.end.p0(i64 8, ptr %16) #10
  call void @llvm.lifetime.end.p0(i64 8, ptr %15) #10
  call void @llvm.lifetime.end.p0(i64 8, ptr %14) #10
  call void @llvm.lifetime.end.p0(i64 8, ptr %13) #10
  br label %133

133:                                              ; preds = %130, %6
  ret void
}