; Function Attrs: mustprogress uwtable
define internal fastcc void @_ZL22StoreTrivialContextMapP21EncodeContextMapArenammPN13duckdb_brotli11HuffmanTreeEPmPh(ptr noundef %0, i64 noundef %1, i64 noundef range(i64 2, 7) %2, ptr noundef %3, ptr noundef captures(none) %4, ptr noundef captures(none) %5) unnamed_addr #0 {
  %7 = add i64 %1, -1
  %8 = icmp eq i64 %7, 0
  br i1 %8, label %_ZL16StoreVarLenUint8mPmPh.exit.thread, label %_ZL16StoreVarLenUint8mPmPh.exit

_ZL16StoreVarLenUint8mPmPh.exit.thread:           ; preds = %6
  tail call void @llvm.experimental.noalias.scope.decl(metadata !380)
  tail call void @llvm.experimental.noalias.scope.decl(metadata !383)
  %9 = load i64, ptr %4, align 8, !tbaa !3, !alias.scope !380, !noalias !383
  %10 = lshr i64 %9, 3
  %11 = getelementptr inbounds nuw i8, ptr %5, i64 %10
  %12 = load i8, ptr %11, align 1, !tbaa !7, !alias.scope !383, !noalias !380
  %13 = zext i8 %12 to i64
  store i64 %13, ptr %11, align 1, !noalias !380
  %14 = add i64 %9, 1
  br label %.sink.split

_ZL16StoreVarLenUint8mPmPh.exit:                  ; preds = %6
  %15 = trunc i64 %7 to i32
  %16 = tail call range(i32 0, 33) i32 @llvm.ctlz.i32(i32 %15, i1 true)
  %17 = xor i32 %16, 31
  %18 = zext nneg i32 %17 to i64
  tail call void @llvm.experimental.noalias.scope.decl(metadata !385)
  tail call void @llvm.experimental.noalias.scope.decl(metadata !388)
  %19 = load i64, ptr %4, align 8, !tbaa !3, !alias.scope !385, !noalias !388
  %20 = lshr i64 %19, 3
  %21 = getelementptr inbounds nuw i8, ptr %5, i64 %20
  %22 = load i8, ptr %21, align 1, !tbaa !7, !alias.scope !388, !noalias !385
  %23 = zext i8 %22 to i64
  %24 = and i64 %19, 7
  %25 = shl nuw nsw i64 1, %24
  %26 = or i64 %25, %23
  store i64 %26, ptr %21, align 1, !noalias !385
  %27 = add i64 %19, 1
  store i64 %27, ptr %4, align 8, !tbaa !3, !alias.scope !385, !noalias !388
  tail call void @llvm.experimental.noalias.scope.decl(metadata !390)
  tail call void @llvm.experimental.noalias.scope.decl(metadata !393)
  %28 = lshr i64 %27, 3
  %29 = getelementptr inbounds nuw i8, ptr %5, i64 %28
  %30 = load i8, ptr %29, align 1, !tbaa !7, !alias.scope !393, !noalias !390
  %31 = zext i8 %30 to i64
  %32 = and i64 %27, 7
  %33 = shl nuw nsw i64 %18, %32
  %34 = or i64 %33, %31
  store i64 %34, ptr %29, align 1, !noalias !390
  %35 = add i64 %19, 4
  store i64 %35, ptr %4, align 8, !tbaa !3, !alias.scope !390, !noalias !393
  %.neg.i = shl nsw i64 -1, %18
  %36 = add i64 %.neg.i, %7
  %37 = lshr i64 %35, 3
  %38 = getelementptr inbounds nuw i8, ptr %5, i64 %37
  %39 = load i8, ptr %38, align 1, !tbaa !7, !alias.scope !395, !noalias !398
  %40 = zext i8 %39 to i64
  %41 = and i64 %35, 7
  %42 = shl i64 %36, %41
  %43 = or i64 %42, %40
  store i64 %43, ptr %38, align 1, !noalias !398
  %44 = add i64 %35, %18
  store i64 %44, ptr %4, align 8, !tbaa !3, !noalias !151
  %45 = icmp ugt i64 %1, 1
  br i1 %45, label %46, label %129

46:                                               ; preds = %_ZL16StoreVarLenUint8mPmPh.exit
  %47 = add nsw i64 %2, -1
  %48 = trunc nuw nsw i64 %47 to i32
  %notmask = shl nsw i32 -1, %48
  %49 = xor i32 %notmask, -1
  %50 = zext nneg i32 %49 to i64
  %51 = add i64 %47, %1
  %52 = getelementptr inbounds nuw i8, ptr %0, i64 1088
  %53 = getelementptr inbounds nuw i8, ptr %0, i64 1360
  %54 = shl i64 %51, 2
  tail call void @llvm.memset.p0.i64(ptr align 4 %0, i8 0, i64 %54, i1 false)
  tail call void @llvm.experimental.noalias.scope.decl(metadata !400)
  tail call void @llvm.experimental.noalias.scope.decl(metadata !403)
  %55 = load i64, ptr %4, align 8, !tbaa !3, !alias.scope !400, !noalias !403
  %56 = lshr i64 %55, 3
  %57 = getelementptr inbounds nuw i8, ptr %5, i64 %56
  %58 = load i8, ptr %57, align 1, !tbaa !7, !alias.scope !403, !noalias !400
  %59 = zext i8 %58 to i64
  %60 = and i64 %55, 7
  %61 = shl nuw nsw i64 1, %60
  %62 = or i64 %61, %59
  store i64 %62, ptr %57, align 1, !noalias !400
  %63 = add i64 %55, 1
  store i64 %63, ptr %4, align 8, !tbaa !3, !alias.scope !400, !noalias !403
  %64 = add nsw i64 %2, -2
  tail call void @llvm.experimental.noalias.scope.decl(metadata !405)
  tail call void @llvm.experimental.noalias.scope.decl(metadata !408)
  %65 = lshr i64 %63, 3
  %66 = getelementptr inbounds nuw i8, ptr %5, i64 %65
  %67 = load i8, ptr %66, align 1, !tbaa !7, !alias.scope !408, !noalias !405
  %68 = zext i8 %67 to i64
  %69 = and i64 %63, 7
  %70 = shl nuw nsw i64 %64, %69
  %71 = or i64 %70, %68
  store i64 %71, ptr %66, align 1, !noalias !405
  %72 = add i64 %55, 5
  store i64 %72, ptr %4, align 8, !tbaa !3, !alias.scope !405, !noalias !408
  %73 = trunc i64 %1 to i32
  %74 = getelementptr inbounds nuw i32, ptr %0, i64 %47
  store i32 %73, ptr %74, align 4, !tbaa !8
  store i32 1, ptr %0, align 4, !tbaa !8
  %75 = icmp ult i64 %2, %51
  br i1 %75, label %.lr.ph, label %._crit_edge

.lr.ph:                                           ; preds = %46, %.lr.ph
  %.062 = phi i64 [ %77, %.lr.ph ], [ %2, %46 ]
  %76 = getelementptr inbounds nuw i32, ptr %0, i64 %.062
  store i32 1, ptr %76, align 4, !tbaa !8
  %77 = add nuw i64 %.062, 1
  %exitcond.not = icmp eq i64 %77, %51
  br i1 %exitcond.not, label %._crit_edge, label %.lr.ph, !llvm.loop !410

._crit_edge:                                      ; preds = %.lr.ph, %46
  tail call fastcc void @_ZL24BuildAndStoreHuffmanTreePKjmmPN13duckdb_brotli11HuffmanTreeEPhPtPmS4_(ptr noundef nonnull %0, i64 noundef %51, i64 noundef %51, ptr noundef %3, ptr noundef nonnull %52, ptr noundef nonnull %53, ptr noundef nonnull %4, ptr noundef %5)
  %78 = getelementptr inbounds nuw i8, ptr %52, i64 %47
  %79 = getelementptr inbounds nuw i16, ptr %53, i64 %47
  %umax = tail call i64 @llvm.umax.i64(i64 %1, i64 1)
  %.pre = load i64, ptr %4, align 8, !tbaa !3, !alias.scope !411, !noalias !414
  br label %80

80:                                               ; preds = %._crit_edge, %80
  %81 = phi i64 [ %.pre, %._crit_edge ], [ %118, %80 ]
  %.163 = phi i64 [ 0, %._crit_edge ], [ %119, %80 ]
  %82 = icmp eq i64 %.163, 0
  %83 = add i64 %47, %.163
  %84 = select i1 %82, i64 0, i64 %83
  %85 = getelementptr inbounds nuw i8, ptr %52, i64 %84
  %86 = load i8, ptr %85, align 1, !tbaa !7
  %87 = zext i8 %86 to i64
  %88 = getelementptr inbounds nuw i16, ptr %53, i64 %84
  %89 = load i16, ptr %88, align 2, !tbaa !30
  %90 = zext i16 %89 to i64
  tail call void @llvm.experimental.noalias.scope.decl(metadata !411)
  tail call void @llvm.experimental.noalias.scope.decl(metadata !414)
  %91 = lshr i64 %81, 3
  %92 = getelementptr inbounds nuw i8, ptr %5, i64 %91
  %93 = load i8, ptr %92, align 1, !tbaa !7, !alias.scope !414, !noalias !411
  %94 = zext i8 %93 to i64
  %95 = and i64 %81, 7
  %96 = shl nuw nsw i64 %90, %95
  %97 = or i64 %96, %94
  store i64 %97, ptr %92, align 1, !noalias !411
  %98 = add i64 %81, %87
  store i64 %98, ptr %4, align 8, !tbaa !3, !alias.scope !411, !noalias !414
  %99 = load i8, ptr %78, align 1, !tbaa !7
  %100 = zext i8 %99 to i64
  %101 = load i16, ptr %79, align 2, !tbaa !30
  %102 = zext i16 %101 to i64
  tail call void @llvm.experimental.noalias.scope.decl(metadata !416)
  tail call void @llvm.experimental.noalias.scope.decl(metadata !419)
  %103 = lshr i64 %98, 3
  %104 = getelementptr inbounds nuw i8, ptr %5, i64 %103
  %105 = load i8, ptr %104, align 1, !tbaa !7, !alias.scope !419, !noalias !416
  %106 = zext i8 %105 to i64
  %107 = and i64 %98, 7
  %108 = shl nuw nsw i64 %102, %107
  %109 = or i64 %108, %106
  store i64 %109, ptr %104, align 1, !noalias !416
  %110 = add i64 %98, %100
  store i64 %110, ptr %4, align 8, !tbaa !3, !alias.scope !416, !noalias !419
  tail call void @llvm.experimental.noalias.scope.decl(metadata !421)
  tail call void @llvm.experimental.noalias.scope.decl(metadata !424)
  %111 = lshr i64 %110, 3
  %112 = getelementptr inbounds nuw i8, ptr %5, i64 %111
  %113 = load i8, ptr %112, align 1, !tbaa !7, !alias.scope !424, !noalias !421
  %114 = zext i8 %113 to i64
  %115 = and i64 %110, 7
  %116 = shl nuw nsw i64 %50, %115
  %117 = or i64 %116, %114
  store i64 %117, ptr %112, align 1, !noalias !421
  %118 = add i64 %110, %47
  store i64 %118, ptr %4, align 8, !tbaa !3, !alias.scope !421, !noalias !424
  %119 = add nuw i64 %.163, 1
  %exitcond64.not = icmp eq i64 %119, %umax
  br i1 %exitcond64.not, label %120, label %80, !llvm.loop !426

120:                                              ; preds = %80
  %121 = lshr i64 %118, 3
  %122 = getelementptr inbounds nuw i8, ptr %5, i64 %121
  %123 = load i8, ptr %122, align 1, !tbaa !7, !alias.scope !427, !noalias !430
  %124 = zext i8 %123 to i64
  %125 = and i64 %118, 7
  %126 = shl nuw nsw i64 1, %125
  %127 = or i64 %126, %124
  store i64 %127, ptr %122, align 1, !noalias !430
  %128 = add i64 %110, %2
  br label %.sink.split

.sink.split:                                      ; preds = %120, %_ZL16StoreVarLenUint8mPmPh.exit.thread
  %.sink = phi i64 [ %14, %_ZL16StoreVarLenUint8mPmPh.exit.thread ], [ %128, %120 ]
  store i64 %.sink, ptr %4, align 8, !tbaa !3, !noalias !151
  br label %129

129:                                              ; preds = %.sink.split, %_ZL16StoreVarLenUint8mPmPh.exit
  ret void
}